; Function Attrs: mustprogress nofree nounwind uwtable
define hidden noundef zeroext i1 @_ZN4lean12is_directoryERKNSt7__cxx1112basic_stringIcSt11char_traitsIcESaIcEEE(ptr noundef nonnull readonly align 8 captures(none) dereferenceable(32) %0) local_unnamed_addr #10 personality ptr @__gxx_personality_v0 {
_ZN4lean6is_dirERKNSt7__cxx1112basic_stringIcSt11char_traitsIcESaIcEEE.exit:
  %1 = alloca %struct.stat, align 8
  call void @llvm.lifetime.start.p0(i64 144, ptr nonnull %1) #24, !noalias !94
  %2 = load ptr, ptr %0, align 8, !tbaa !3, !noalias !94
  %3 = call i32 @stat(ptr noundef %2, ptr noundef nonnull %1) #24, !noalias !94
  %4 = icmp eq i32 %3, 0
  %5 = getelementptr inbounds nuw i8, ptr %1, i64 24
  %6 = load i32, ptr %5, align 8
  %7 = and i32 %6, 61440
  %8 = icmp eq i32 %7, 16384
  %.0 = select i1 %4, i1 %8, i1 false
  call void @llvm.lifetime.end.p0(i64 144, ptr nonnull %1) #24, !noalias !94
  ret i1 %.0
}